; Function Attrs: null_pointer_is_valid sspstrong uwtable
define internal i32 @dissect_mms_Data(i1 zeroext %0, ptr noundef %1, i32 noundef %2, ptr noundef %3, ptr noundef %4, i32 noundef %5) #0 {
  %7 = getelementptr inbounds nuw i8, ptr %3, i64 16
  %8 = load ptr, ptr %7, align 8
  %9 = getelementptr inbounds nuw i8, ptr %8, i64 432
  %10 = load i32, ptr %9, align 8
  %11 = add i32 %10, 2
  store i32 %11, ptr %9, align 8
  %12 = load ptr, ptr %7, align 8
  tail call void @increment_dissection_depth(ptr noundef %12)
  %13 = getelementptr inbounds nuw i8, ptr %3, i64 48
  %14 = load ptr, ptr %13, align 8
  %.not = icmp eq ptr %14, null
  br i1 %.not, label %19, label %15

15:                                               ; preds = %6
  %16 = getelementptr inbounds nuw i8, ptr %14, i64 16
  %17 = load i32, ptr %16, align 8
  %18 = add i32 %17, 1
  store i32 %18, ptr %16, align 8
  br label %19

19:                                               ; preds = %15, %6
  %20 = load i32, ptr @ett_mms_Data, align 4
  %21 = tail call i32 @dissect_ber_choice(ptr noundef %3, ptr noundef %4, ptr noundef %1, i32 noundef %2, ptr noundef nonnull @Data_choice, i32 noundef %5, i32 noundef %20, ptr noundef null)
  %22 = load ptr, ptr %7, align 8
  %23 = getelementptr inbounds nuw i8, ptr %22, i64 432
  %24 = load i32, ptr %23, align 8
  %25 = add i32 %24, -2
  store i32 %25, ptr %23, align 8
  %26 = load ptr, ptr %7, align 8
  tail call void @decrement_dissection_depth(ptr noundef %26)
  ret i32 %21
}